target datalayout = "e-m:e-p270:32:32-p271:32:32-p272:64:64-i64:64-i128:128-f80:128-n8:16:32:64-S128"
target triple = "x86_64-pc-linux-gnu"

%"struct.tbb::detail::d1::intrusive_list_node" = type { ptr, ptr }
%"struct.std::atomic.4" = type { %"struct.std::__atomic_base.5" }
%"struct.std::__atomic_base.5" = type { i32 }
%"struct.tbb::detail::r1::arena_base" = type { %"struct.tbb::detail::d0::padded.11", %"struct.std::atomic.4", %"struct.std::atomic.4", %"struct.std::atomic.4", [4 x i8], %"class.tbb::detail::r1::task_stream", %"class.tbb::detail::r1::task_stream", %"class.tbb::detail::r1::task_stream.15", i32, i32, %"struct.std::atomic", %"class.tbb::detail::r1::atomic_flag", %"class.tbb::detail::r1::observer_list", ptr, ptr, ptr, %"class.tbb::detail::r1::concurrent_monitor", %"class.tbb::detail::r1::arena_co_cache", %"class.tbb::detail::r1::atomic_flag", i32, i32, i32, i32, %"class.tbb::detail::r1::threading_control_client" }
%"struct.tbb::detail::d0::padded.11" = type { %"struct.tbb::detail::d0::padded_base.12" }
%"struct.tbb::detail::d0::padded_base.12" = type { %"struct.tbb::detail::d1::intrusive_list_node", [112 x i8] }
%"class.tbb::detail::r1::task_stream" = type <{ %"struct.std::atomic.13", ptr, i32, [4 x i8] }>
%"struct.std::atomic.13" = type { %"struct.std::__atomic_base.14" }
%"struct.std::__atomic_base.14" = type { i64 }
%"class.tbb::detail::r1::task_stream.15" = type <{ %"struct.std::atomic.13", ptr, i32, [4 x i8] }>
%"struct.std::atomic" = type { %"struct.std::__atomic_base" }
%"struct.std::__atomic_base" = type { i8 }
%"class.tbb::detail::r1::observer_list" = type { %"struct.std::atomic.18", %"struct.std::atomic.18", %"class.tbb::detail::d0::aligned_space", ptr }
%"struct.std::atomic.18" = type { %"struct.std::__atomic_base.19" }
%"struct.std::__atomic_base.19" = type { ptr }
%"class.tbb::detail::d0::aligned_space" = type { [8 x i8] }
%"class.tbb::detail::r1::concurrent_monitor" = type { %"class.tbb::detail::r1::concurrent_monitor_base.base", [4 x i8] }
%"class.tbb::detail::r1::concurrent_monitor_base.base" = type <{ %"class.tbb::detail::r1::concurrent_monitor_mutex", %"class.tbb::detail::r1::circular_doubly_linked_list_with_sentinel", %"struct.std::atomic.4" }>
%"class.tbb::detail::r1::concurrent_monitor_mutex" = type { %"struct.std::atomic.0", %"struct.std::atomic.0" }
%"struct.std::atomic.0" = type { %"struct.std::__atomic_base.1" }
%"struct.std::__atomic_base.1" = type { i32 }
%"class.tbb::detail::r1::circular_doubly_linked_list_with_sentinel" = type { %"struct.std::atomic.13", %"struct.tbb::detail::r1::circular_doubly_linked_list_with_sentinel::base_node" }
%"struct.tbb::detail::r1::circular_doubly_linked_list_with_sentinel::base_node" = type { ptr, ptr }
%"class.tbb::detail::r1::arena_co_cache" = type <{ ptr, i32, i32, %"class.tbb::detail::d1::spin_mutex", [7 x i8] }>
%"class.tbb::detail::d1::spin_mutex" = type { %"struct.std::atomic" }
%"class.tbb::detail::r1::atomic_flag" = type { %"struct.std::atomic.13" }
%"class.tbb::detail::r1::threading_control_client" = type { ptr, ptr }
%"class.tbb::detail::r1::arena" = type { %"struct.tbb::detail::d0::padded", [1 x %"class.tbb::detail::r1::arena_slot"] }
%"struct.tbb::detail::d0::padded" = type { %"struct.tbb::detail::d0::padded_base" }
%"struct.tbb::detail::d0::padded_base" = type { %"struct.tbb::detail::r1::arena_base", [112 x i8] }
%"class.tbb::detail::r1::arena_slot" = type { %"struct.tbb::detail::r1::arena_slot_shared_state.base", [104 x i8], %"struct.tbb::detail::r1::arena_slot_private_state.base", ptr, [80 x i8] }
%"struct.tbb::detail::r1::arena_slot_shared_state.base" = type { %"struct.std::atomic", %"struct.std::atomic.20", %"struct.std::atomic.13" }
%"struct.std::atomic.20" = type { %"struct.std::__atomic_base.21" }
%"struct.std::__atomic_base.21" = type { ptr }
%"struct.tbb::detail::r1::arena_slot_private_state.base" = type { i32, i32, i32, %"struct.std::atomic.13", i64, ptr }
%"struct.tbb::detail::r1::arena_slot_shared_state" = type { %"struct.std::atomic", %"struct.std::atomic.20", %"struct.std::atomic.13", [104 x i8] }
%"struct.tbb::detail::r1::arena_slot_private_state" = type { i32, i32, i32, %"struct.std::atomic.13", i64, ptr, [88 x i8] }

; Function Attrs: alwaysinline mustprogress nounwind sspstrong uwtable
define linkonce_odr noundef ptr @_ZNKSt13__atomic_baseIPPN3tbb6detail2d14taskEE4loadESt12memory_order(ptr noundef nonnull align 8 dereferenceable(8) %0, i32 noundef %1) #5 comdat align 2 {
  %3 = alloca ptr, align 8
  %4 = alloca i32, align 4
  %5 = alloca i32, align 4
  %6 = alloca ptr, align 8
  store ptr %0, ptr %3, align 8, !tbaa !359
  store i32 %1, ptr %4, align 4, !tbaa !102
  %7 = load ptr, ptr %3, align 8
  call void @llvm.lifetime.start.p0(i64 4, ptr %5) #12
  %8 = load i32, ptr %4, align 4, !tbaa !102
  %9 = call noundef i32 @_ZStanSt12memory_orderSt23__memory_order_modifier(i32 noundef %8, i32 noundef 65535)
  store i32 %9, ptr %5, align 4, !tbaa !102
  br label %10

10:                                               ; preds = %2
  br label %11

11:                                               ; preds = %10
  br label %12

12:                                               ; preds = %11
  br label %13

13:                                               ; preds = %12
  br label %14

14:                                               ; preds = %13
  br label %15

15:                                               ; preds = %14
  %16 = getelementptr inbounds nuw %"struct.std::__atomic_base.21", ptr %7, i32 0, i32 0
  %17 = load i32, ptr %4, align 4, !tbaa !102
  switch i32 %17, label %18 [
    i32 1, label %20
    i32 2, label %20
    i32 5, label %22
  ]

18:                                               ; preds = %15
  %19 = load atomic i64, ptr %16 monotonic, align 8
  store i64 %19, ptr %6, align 8
  br label %24

20:                                               ; preds = %15, %15
  %21 = load atomic i64, ptr %16 acquire, align 8
  store i64 %21, ptr %6, align 8
  br label %24

22:                                               ; preds = %15
  %23 = load atomic i64, ptr %16 seq_cst, align 8
  store i64 %23, ptr %6, align 8
  br label %24

24:                                               ; preds = %22, %20, %18
  %25 = load ptr, ptr %6, align 8, !tbaa !361
  call void @llvm.lifetime.end.p0(i64 4, ptr %5) #12
  ret ptr %25
}

; Function Attrs: alwaysinline mustprogress nounwind sspstrong uwtable
define linkonce_odr noundef i64 @_ZNKSt13__atomic_baseImE4loadESt12memory_order(ptr noundef nonnull align 8 dereferenceable(8) %0, i32 noundef %1) #5 comdat align 2 {
  %3 = alloca ptr, align 8
  %4 = alloca i32, align 4
  %5 = alloca i32, align 4
  %6 = alloca i64, align 8
  store ptr %0, ptr %3, align 8, !tbaa !350
  store i32 %1, ptr %4, align 4, !tbaa !102
  %7 = load ptr, ptr %3, align 8
  call void @llvm.lifetime.start.p0(i64 4, ptr %5) #12
  %8 = load i32, ptr %4, align 4, !tbaa !102
  %9 = call noundef i32 @_ZStanSt12memory_orderSt23__memory_order_modifier(i32 noundef %8, i32 noundef 65535)
  store i32 %9, ptr %5, align 4, !tbaa !102
  br label %10

10:                                               ; preds = %2
  br label %11

11:                                               ; preds = %10
  br label %12

12:                                               ; preds = %11
  br label %13

13:                                               ; preds = %12
  br label %14

14:                                               ; preds = %13
  br label %15

15:                                               ; preds = %14
  %16 = getelementptr inbounds nuw %"struct.std::__atomic_base.14", ptr %7, i32 0, i32 0
  %17 = load i32, ptr %4, align 4, !tbaa !102
  switch i32 %17, label %18 [
    i32 1, label %20
    i32 2, label %20
    i32 5, label %22
  ]

18:                                               ; preds = %15
  %19 = load atomic i64, ptr %16 monotonic, align 8
  store i64 %19, ptr %6, align 8
  br label %24

20:                                               ; preds = %15, %15
  %21 = load atomic i64, ptr %16 acquire, align 8
  store i64 %21, ptr %6, align 8
  br label %24

22:                                               ; preds = %15
  %23 = load atomic i64, ptr %16 seq_cst, align 8
  store i64 %23, ptr %6, align 8
  br label %24

24:                                               ; preds = %22, %20, %18
  %25 = load i64, ptr %6, align 8, !tbaa !99
  call void @llvm.lifetime.end.p0(i64 4, ptr %5) #12
  ret i64 %25
}

; Function Attrs: mustprogress nounwind sspstrong uwtable
define linkonce_odr noundef ptr @_ZNKSt6atomicIPPN3tbb6detail2d14taskEE4loadESt12memory_order(ptr noundef nonnull align 8 dereferenceable(8) %0, i32 noundef %1) #1 comdat align 2 {
  %3 = alloca ptr, align 8
  %4 = alloca i32, align 4
  store ptr %0, ptr %3, align 8, !tbaa !357
  store i32 %1, ptr %4, align 4, !tbaa !102
  %5 = load ptr, ptr %3, align 8
  %6 = getelementptr inbounds nuw %"struct.std::atomic.20", ptr %5, i32 0, i32 0
  %7 = load i32, ptr %4, align 4, !tbaa !102
  %8 = call noundef ptr @_ZNKSt13__atomic_baseIPPN3tbb6detail2d14taskEE4loadESt12memory_order(ptr noundef nonnull align 8 dereferenceable(8) %6, i32 noundef %7) #12
  ret ptr %8
}

; Function Attrs: mustprogress nounwind sspstrong uwtable
define linkonce_odr noundef i32 @_ZStanSt12memory_orderSt23__memory_order_modifier(i32 noundef %0, i32 noundef %1) #1 comdat {
  %3 = alloca i32, align 4
  %4 = alloca i32, align 4
  store i32 %0, ptr %3, align 4, !tbaa !102
  store i32 %1, ptr %4, align 4, !tbaa !334
  %5 = load i32, ptr %3, align 4, !tbaa !102
  %6 = load i32, ptr %4, align 4, !tbaa !334
  %7 = and i32 %5, %6
  ret i32 %7
}

; Function Attrs: mustprogress nounwind sspstrong uwtable
define linkonce_odr noundef zeroext i1 @_ZN3tbb6detail2r111task_streamILNS1_25task_stream_accessor_typeE1EE5emptyEv(ptr noundef nonnull align 8 dereferenceable(20) %0) #1 comdat align 2 {
  %2 = alloca ptr, align 8
  store ptr %0, ptr %2, align 8, !tbaa !192
  %3 = load ptr, ptr %2, align 8
  %4 = getelementptr inbounds nuw %"class.tbb::detail::r1::task_stream.15", ptr %3, i32 0, i32 0
  %5 = call noundef i64 @_ZNKSt13__atomic_baseImE4loadESt12memory_order(ptr noundef nonnull align 8 dereferenceable(8) %4, i32 noundef 0) #12
  %6 = icmp ne i64 %5, 0
  %7 = xor i1 %6, true
  ret i1 %7
}

; Function Attrs: mustprogress nounwind sspstrong uwtable
define linkonce_odr noundef zeroext i1 @_ZN3tbb6detail2r111task_streamILNS1_25task_stream_accessor_typeE0EE5emptyEv(ptr noundef nonnull align 8 dereferenceable(20) %0) #1 comdat align 2 {
  %2 = alloca ptr, align 8
  store ptr %0, ptr %2, align 8, !tbaa !187
  %3 = load ptr, ptr %2, align 8
  %4 = getelementptr inbounds nuw %"class.tbb::detail::r1::task_stream", ptr %3, i32 0, i32 0
  %5 = call noundef i64 @_ZNKSt13__atomic_baseImE4loadESt12memory_order(ptr noundef nonnull align 8 dereferenceable(8) %4, i32 noundef 0) #12
  %6 = icmp ne i64 %5, 0
  %7 = xor i1 %6, true
  ret i1 %7
}

; Function Attrs: mustprogress sspstrong uwtable
define noundef zeroext i1 @_ZN3tbb6detail2r15arena18has_enqueued_tasksEv(ptr noundef nonnull align 128 dereferenceable(768) %0) #2 align 2 {
  %2 = alloca ptr, align 8
  store ptr %0, ptr %2, align 8, !tbaa !43
  %3 = load ptr, ptr %2, align 8
  %4 = getelementptr inbounds nuw %"struct.tbb::detail::r1::arena_base", ptr %3, i32 0, i32 5
  %5 = call noundef zeroext i1 @_ZN3tbb6detail2r111task_streamILNS1_25task_stream_accessor_typeE0EE5emptyEv(ptr noundef nonnull align 8 dereferenceable(20) %4)
  %6 = xor i1 %5, true
  ret i1 %6
}

; Function Attrs: mustprogress nounwind sspstrong uwtable
define linkonce_odr noundef zeroext i1 @_ZNK3tbb6detail2r110arena_slot8is_emptyEv(ptr noundef nonnull align 128 dereferenceable(176) %0) #1 comdat align 2 {
  %2 = alloca ptr, align 8
  store ptr %0, ptr %2, align 8, !tbaa !128
  %3 = load ptr, ptr %2, align 8
  %4 = getelementptr inbounds nuw %"struct.tbb::detail::r1::arena_slot_shared_state", ptr %3, i32 0, i32 1
  %5 = call noundef ptr @_ZNKSt6atomicIPPN3tbb6detail2d14taskEE4loadESt12memory_order(ptr noundef nonnull align 8 dereferenceable(8) %4, i32 noundef 0) #12
  %6 = icmp eq ptr %5, null
  br i1 %6, label %14, label %7

7:                                                ; preds = %1
  %8 = getelementptr inbounds nuw %"struct.tbb::detail::r1::arena_slot_shared_state", ptr %3, i32 0, i32 2
  %9 = call noundef i64 @_ZNKSt13__atomic_baseImE4loadESt12memory_order(ptr noundef nonnull align 8 dereferenceable(8) %8, i32 noundef 0) #12
  %10 = getelementptr inbounds i8, ptr %3, i64 128
  %11 = getelementptr inbounds nuw %"struct.tbb::detail::r1::arena_slot_private_state", ptr %10, i32 0, i32 3
  %12 = call noundef i64 @_ZNKSt13__atomic_baseImE4loadESt12memory_order(ptr noundef nonnull align 8 dereferenceable(8) %11, i32 noundef 0) #12
  %13 = icmp uge i64 %9, %12
  br label %14

14:                                               ; preds = %7, %1
  %15 = phi i1 [ true, %1 ], [ %13, %7 ]
  ret i1 %15
}

; Function Attrs: alwaysinline mustprogress nounwind sspstrong uwtable
define linkonce_odr noundef i32 @_ZNKSt13__atomic_baseIjE4loadESt12memory_order(ptr noundef nonnull align 4 dereferenceable(4) %0, i32 noundef %1) #5 comdat align 2 {
  %3 = alloca ptr, align 8
  %4 = alloca i32, align 4
  %5 = alloca i32, align 4
  %6 = alloca i32, align 4
  store ptr %0, ptr %3, align 8, !tbaa !109
  store i32 %1, ptr %4, align 4, !tbaa !102
  %7 = load ptr, ptr %3, align 8
  call void @llvm.lifetime.start.p0(i64 4, ptr %5) #12
  %8 = load i32, ptr %4, align 4, !tbaa !102
  %9 = call noundef i32 @_ZStanSt12memory_orderSt23__memory_order_modifier(i32 noundef %8, i32 noundef 65535)
  store i32 %9, ptr %5, align 4, !tbaa !102
  br label %10

10:                                               ; preds = %2
  br label %11

11:                                               ; preds = %10
  br label %12

12:                                               ; preds = %11
  br label %13

13:                                               ; preds = %12
  br label %14

14:                                               ; preds = %13
  br label %15

15:                                               ; preds = %14
  %16 = getelementptr inbounds nuw %"struct.std::__atomic_base.5", ptr %7, i32 0, i32 0
  %17 = load i32, ptr %4, align 4, !tbaa !102
  switch i32 %17, label %18 [
    i32 1, label %20
    i32 2, label %20
    i32 5, label %22
  ]

18:                                               ; preds = %15
  %19 = load atomic i32, ptr %16 monotonic, align 4
  store i32 %19, ptr %6, align 4
  br label %24

20:                                               ; preds = %15, %15
  %21 = load atomic i32, ptr %16 acquire, align 4
  store i32 %21, ptr %6, align 4
  br label %24

22:                                               ; preds = %15
  %23 = load atomic i32, ptr %16 seq_cst, align 4
  store i32 %23, ptr %6, align 4
  br label %24

24:                                               ; preds = %22, %20, %18
  %25 = load i32, ptr %6, align 4, !tbaa !79
  call void @llvm.lifetime.end.p0(i64 4, ptr %5) #12
  ret i32 %25
}

; Function Attrs: mustprogress sspstrong uwtable
define noundef zeroext i1 @_ZN3tbb6detail2r15arena9has_tasksEv(ptr noundef nonnull align 128 dereferenceable(768) %0) #2 align 2 {
  %2 = alloca ptr, align 8
  %3 = alloca i64, align 8
  %4 = alloca i8, align 1
  %5 = alloca i64, align 8
  store ptr %0, ptr %2, align 8, !tbaa !43
  %6 = load ptr, ptr %2, align 8
  call void @llvm.lifetime.start.p0(i64 8, ptr %3) #12
  %7 = getelementptr inbounds nuw %"struct.tbb::detail::r1::arena_base", ptr %6, i32 0, i32 3
  %8 = call noundef i32 @_ZNKSt13__atomic_baseIjE4loadESt12memory_order(ptr noundef nonnull align 4 dereferenceable(4) %7, i32 noundef 2) #12
  %9 = zext i32 %8 to i64
  store i64 %9, ptr %3, align 8, !tbaa !99
  call void @llvm.lifetime.start.p0(i64 1, ptr %4) #12
  store i8 0, ptr %4, align 1, !tbaa !91
  call void @llvm.lifetime.start.p0(i64 8, ptr %5) #12
  store i64 0, ptr %5, align 8, !tbaa !99
  br label %10

10:                                               ; preds = %28, %1
  %11 = load i64, ptr %5, align 8, !tbaa !99
  %12 = load i64, ptr %3, align 8, !tbaa !99
  %13 = icmp ult i64 %11, %12
  br i1 %13, label %14, label %18

14:                                               ; preds = %10
  %15 = load i8, ptr %4, align 1, !tbaa !91, !range !92, !noundef !93
  %16 = trunc i8 %15 to i1
  %17 = xor i1 %16, true
  br label %18

18:                                               ; preds = %14, %10
  %19 = phi i1 [ false, %10 ], [ %17, %14 ]
  br i1 %19, label %21, label %20

20:                                               ; preds = %18
  call void @llvm.lifetime.end.p0(i64 8, ptr %5) #12
  br label %31

21:                                               ; preds = %18
  %22 = getelementptr inbounds nuw %"class.tbb::detail::r1::arena", ptr %6, i32 0, i32 1
  %23 = load i64, ptr %5, align 8, !tbaa !99
  %24 = getelementptr inbounds nuw [1 x %"class.tbb::detail::r1::arena_slot"], ptr %22, i64 0, i64 %23
  %25 = call noundef zeroext i1 @_ZNK3tbb6detail2r110arena_slot8is_emptyEv(ptr noundef nonnull align 128 dereferenceable(176) %24)
  %26 = xor i1 %25, true
  %27 = zext i1 %26 to i8
  store i8 %27, ptr %4, align 1, !tbaa !91
  br label %28

28:                                               ; preds = %21
  %29 = load i64, ptr %5, align 8, !tbaa !99
  %30 = add i64 %29, 1
  store i64 %30, ptr %5, align 8, !tbaa !99
  br label %10, !llvm.loop !219

31:                                               ; preds = %20
  %32 = load i8, ptr %4, align 1, !tbaa !91, !range !92, !noundef !93
  %33 = trunc i8 %32 to i1
  br i1 %33, label %40, label %34

34:                                               ; preds = %31
  %35 = call noundef zeroext i1 @_ZN3tbb6detail2r15arena18has_enqueued_tasksEv(ptr noundef nonnull align 128 dereferenceable(768) %6)
  br i1 %35, label %40, label %36

36:                                               ; preds = %34
  %37 = getelementptr inbounds nuw %"struct.tbb::detail::r1::arena_base", ptr %6, i32 0, i32 6
  %38 = call noundef zeroext i1 @_ZN3tbb6detail2r111task_streamILNS1_25task_stream_accessor_typeE0EE5emptyEv(ptr noundef nonnull align 8 dereferenceable(20) %37)
  %39 = xor i1 %38, true
  br label %40

40:                                               ; preds = %36, %34, %31
  %41 = phi i1 [ true, %34 ], [ true, %31 ], [ %39, %36 ]
  %42 = zext i1 %41 to i8
  store i8 %42, ptr %4, align 1, !tbaa !91
  %43 = load i8, ptr %4, align 1, !tbaa !91, !range !92, !noundef !93
  %44 = trunc i8 %43 to i1
  br i1 %44, label %49, label %45

45:                                               ; preds = %40
  %46 = getelementptr inbounds nuw %"struct.tbb::detail::r1::arena_base", ptr %6, i32 0, i32 7
  %47 = call noundef zeroext i1 @_ZN3tbb6detail2r111task_streamILNS1_25task_stream_accessor_typeE1EE5emptyEv(ptr noundef nonnull align 8 dereferenceable(20) %46)
  %48 = xor i1 %47, true
  br label %49

49:                                               ; preds = %45, %40
  %50 = phi i1 [ true, %40 ], [ %48, %45 ]
  %51 = zext i1 %50 to i8
  store i8 %51, ptr %4, align 1, !tbaa !91
  %52 = load i8, ptr %4, align 1, !tbaa !91, !range !92, !noundef !93
  %53 = trunc i8 %52 to i1
  call void @llvm.lifetime.end.p0(i64 1, ptr %4) #12
  call void @llvm.lifetime.end.p0(i64 8, ptr %3) #12
  ret i1 %53
}