; Function Attrs: mustprogress nofree norecurse nounwind sspstrong memory(argmem: readwrite) uwtable
define noundef zeroext i1 @_ZN3tbb6detail2r15arena9has_tasksEv(ptr noundef nonnull readonly align 128 captures(none) dereferenceable(768) %0) local_unnamed_addr #4 align 2 {
  %2 = getelementptr inbounds nuw i8, ptr %0, i64 136
  %3 = load atomic i32, ptr %2 acquire, align 8
  %4 = zext i32 %3 to i64
  %5 = icmp eq i32 %3, 0
  br i1 %5, label %.critedge12, label %.lr.ph

.lr.ph:                                           ; preds = %1
  %6 = getelementptr inbounds nuw i8, ptr %0, i64 512
  br label %.backedge

._crit_edge:                                      ; preds = %_ZNK3tbb6detail2r110arena_slot8is_emptyEv.exit
  br i1 %15, label %.critedge, label %.critedge12

.backedge:                                        ; preds = %.backedge.backedge, %.lr.ph
  %.011 = phi i64 [ 0, %.lr.ph ], [ %.011.be, %.backedge.backedge ]
  %7 = getelementptr inbounds nuw [1 x %"class.tbb::detail::r1::arena_slot"], ptr %6, i64 0, i64 %.011
  %8 = getelementptr inbounds nuw i8, ptr %7, i64 8
  %9 = load atomic i64, ptr %8 monotonic, align 8
  %10 = icmp eq i64 %9, 0
  br i1 %10, label %_ZNK3tbb6detail2r110arena_slot8is_emptyEv.exit.thread, label %_ZNK3tbb6detail2r110arena_slot8is_emptyEv.exit

_ZNK3tbb6detail2r110arena_slot8is_emptyEv.exit:   ; preds = %.backedge
  %11 = getelementptr inbounds nuw i8, ptr %7, i64 16
  %12 = load atomic i64, ptr %11 monotonic, align 16
  %13 = getelementptr inbounds nuw i8, ptr %7, i64 144
  %14 = load atomic i64, ptr %13 monotonic, align 16
  %15 = icmp ult i64 %12, %14
  %16 = add nuw nsw i64 %.011, 1
  %17 = icmp samesign uge i64 %16, %4
  %.not9 = or i1 %15, %17
  br i1 %.not9, label %._crit_edge, label %.backedge.backedge

.backedge.backedge:                               ; preds = %_ZNK3tbb6detail2r110arena_slot8is_emptyEv.exit, %_ZNK3tbb6detail2r110arena_slot8is_emptyEv.exit.thread
  %.011.be = phi i64 [ %16, %_ZNK3tbb6detail2r110arena_slot8is_emptyEv.exit ], [ %18, %_ZNK3tbb6detail2r110arena_slot8is_emptyEv.exit.thread ]
  br label %.backedge, !llvm.loop !62

_ZNK3tbb6detail2r110arena_slot8is_emptyEv.exit.thread: ; preds = %.backedge
  %18 = add nuw nsw i64 %.011, 1
  %.not = icmp samesign ult i64 %18, %4
  br i1 %.not, label %.backedge.backedge, label %.critedge12

.critedge12:                                      ; preds = %_ZNK3tbb6detail2r110arena_slot8is_emptyEv.exit.thread, %1, %._crit_edge
  %19 = getelementptr inbounds nuw i8, ptr %0, i64 144
  %20 = load atomic i64, ptr %19 monotonic, align 16
  %.not.i.i.not = icmp eq i64 %20, 0
  br i1 %.not.i.i.not, label %21, label %.critedge

21:                                               ; preds = %.critedge12
  %22 = getelementptr inbounds nuw i8, ptr %0, i64 168
  %23 = load atomic i64, ptr %22 monotonic, align 8
  %.not.i.not = icmp eq i64 %23, 0
  br i1 %.not.i.not, label %24, label %.critedge

24:                                               ; preds = %21
  %25 = getelementptr inbounds nuw i8, ptr %0, i64 192
  %26 = load atomic i64, ptr %25 monotonic, align 64
  %.not.i10 = icmp ne i64 %26, 0
  br label %.critedge

.critedge:                                        ; preds = %.critedge12, %._crit_edge, %24, %21
  %27 = phi i1 [ true, %21 ], [ %.not.i10, %24 ], [ true, %._crit_edge ], [ true, %.critedge12 ]
  ret i1 %27
}